target datalayout = "e-m:e-p270:32:32-p271:32:32-p272:64:64-i64:64-i128:128-f80:128-n8:16:32:64-S128"
target triple = "x86_64-unknown-linux-gnu"

%"class.sat::literal" = type { i32 }
%"class.sat::aig_cuts" = type { %class.random_gen, %"struct.sat::aig_cuts::config", %class.vector, %class.svector, %class.region, %"class.sat::cut_set", %"class.sat::cut_set", %"class.sat::cut_set", %class.vector.1, %class.svector.2, %class.svector.2, i32, i32, %class.svector.4, i32, %"class.std::function", %"class.std::function", %"class.std::function.6", %"class.std::function.6", %class.svector, [6 x ptr], [6 x i64], [6 x %"class.sat::literal"] }
%class.random_gen = type { i32 }
%"struct.sat::aig_cuts::config" = type <{ i32, i32, i32, i8, [3 x i8] }>
%class.vector = type { ptr }
%class.region = type { ptr, ptr, ptr, ptr, ptr }
%"class.sat::cut_set" = type { i32, ptr, i32, i32, ptr }
%class.vector.1 = type { ptr }
%class.svector.2 = type { %class.vector.3 }
%class.vector.3 = type { ptr }
%class.svector.4 = type { %class.vector.5 }
%class.vector.5 = type { ptr }
%"class.std::function" = type { %"class.std::_Function_base", ptr }
%"class.std::_Function_base" = type { %"union.std::_Any_data", ptr }
%"union.std::_Any_data" = type { %"union.std::_Nocopy_types" }
%"union.std::_Nocopy_types" = type { { i64, i64 } }
%"class.std::function.6" = type { %"class.std::_Function_base", ptr }
%class.svector = type { %class.vector.0 }
%class.vector.0 = type { ptr }
%"class.sat::aig_cuts::node" = type { i8, i32, i64, i32, i32 }

; Function Attrs: mustprogress nounwind uwtable
define linkonce_odr hidden noundef i32 @_ZNK3sat7literal3varEv(ptr noundef nonnull align 4 dereferenceable(4) %this) #4 comdat align 2 {
entry:
  %this.addr = alloca ptr, align 8
  store ptr %this, ptr %this.addr, align 8
  %this1 = load ptr, ptr %this.addr, align 8
  %m_val = getelementptr inbounds %"class.sat::literal", ptr %this1, i32 0, i32 0
  %0 = load i32, ptr %m_val, align 4
  %shr = lshr i32 %0, 1
  ret i32 %shr
}

; Function Attrs: mustprogress nounwind uwtable
define linkonce_odr hidden noundef nonnull align 4 dereferenceable(4) ptr @_ZN6vectorIN3sat7literalELb0EjEixEj(ptr noundef nonnull align 8 dereferenceable(8) %this, i32 noundef %idx) #4 comdat align 2 {
entry:
  %this.addr = alloca ptr, align 8
  %idx.addr = alloca i32, align 4
  store ptr %this, ptr %this.addr, align 8
  store i32 %idx, ptr %idx.addr, align 4
  %this1 = load ptr, ptr %this.addr, align 8
  %m_data = getelementptr inbounds %class.vector.0, ptr %this1, i32 0, i32 0
  %0 = load ptr, ptr %m_data, align 8
  %1 = load i32, ptr %idx.addr, align 4
  %idxprom = zext i32 %1 to i64
  %arrayidx = getelementptr inbounds %"class.sat::literal", ptr %0, i64 %idxprom
  ret ptr %arrayidx
}

; Function Attrs: mustprogress nounwind uwtable
define linkonce_odr hidden noundef i32 @_ZNK3sat8aig_cuts4node6offsetEv(ptr noundef nonnull align 8 dereferenceable(24) %this) #4 comdat align 2 {
entry:
  %this.addr = alloca ptr, align 8
  store ptr %this, ptr %this.addr, align 8
  %this1 = load ptr, ptr %this.addr, align 8
  %m_offset = getelementptr inbounds %"class.sat::aig_cuts::node", ptr %this1, i32 0, i32 4
  %0 = load i32, ptr %m_offset, align 4
  ret i32 %0
}

; Function Attrs: mustprogress nounwind uwtable
define linkonce_odr hidden noundef i32 @_ZNK3sat8aig_cuts4node4sizeEv(ptr noundef nonnull align 8 dereferenceable(24) %this) #4 comdat align 2 {
entry:
  %this.addr = alloca ptr, align 8
  store ptr %this, ptr %this.addr, align 8
  %this1 = load ptr, ptr %this.addr, align 8
  %m_size = getelementptr inbounds %"class.sat::aig_cuts::node", ptr %this1, i32 0, i32 3
  %0 = load i32, ptr %m_size, align 8
  ret i32 %0
}

; Function Attrs: mustprogress nounwind uwtable
define linkonce_odr hidden noundef zeroext i1 @_ZNK3sat8aig_cuts4node6is_lutEv(ptr noundef nonnull align 8 dereferenceable(24) %this) #4 comdat align 2 {
entry:
  %this.addr = alloca ptr, align 8
  store ptr %this, ptr %this.addr, align 8
  %this1 = load ptr, ptr %this.addr, align 8
  %m_op = getelementptr inbounds %"class.sat::aig_cuts::node", ptr %this1, i32 0, i32 1
  %0 = load i32, ptr %m_op, align 4
  %cmp = icmp eq i32 %0, 4
  ret i1 %cmp
}

; Function Attrs: mustprogress uwtable
define hidden noundef zeroext i1 @_ZN3sat8aig_cuts7similarERKNS0_4nodeES3_(ptr noundef nonnull align 8 dereferenceable(480) %this, ptr noundef nonnull align 8 dereferenceable(24) %a, ptr noundef nonnull align 8 dereferenceable(24) %b) #5 align 2 {
entry:
  %this.addr = alloca ptr, align 8
  %a.addr = alloca ptr, align 8
  %b.addr = alloca ptr, align 8
  %sim = alloca i8, align 1
  %i = alloca i32, align 4
  store ptr %this, ptr %this.addr, align 8
  store ptr %a, ptr %a.addr, align 8
  store ptr %b, ptr %b.addr, align 8
  %this1 = load ptr, ptr %this.addr, align 8
  store i8 1, ptr %sim, align 1
  %0 = load ptr, ptr %a.addr, align 8
  %call = call noundef zeroext i1 @_ZNK3sat8aig_cuts4node6is_lutEv(ptr noundef nonnull align 8 dereferenceable(24) %0)
  br i1 %call, label %land.lhs.true, label %land.end

land.lhs.true:                                    ; preds = %entry
  %1 = load ptr, ptr %b.addr, align 8
  %call2 = call noundef zeroext i1 @_ZNK3sat8aig_cuts4node6is_lutEv(ptr noundef nonnull align 8 dereferenceable(24) %1)
  br i1 %call2, label %land.end, label %land.rhs

land.rhs:                                         ; preds = %land.lhs.true
  %2 = load ptr, ptr %a.addr, align 8
  %call3 = call noundef i32 @_ZNK3sat8aig_cuts4node4sizeEv(ptr noundef nonnull align 8 dereferenceable(24) %2)
  %3 = load ptr, ptr %b.addr, align 8
  %call4 = call noundef i32 @_ZNK3sat8aig_cuts4node4sizeEv(ptr noundef nonnull align 8 dereferenceable(24) %3)
  %cmp = icmp eq i32 %call3, %call4
  br label %land.end

land.end:                                         ; preds = %land.rhs, %land.lhs.true, %entry
  %4 = phi i1 [ false, %land.lhs.true ], [ false, %entry ], [ %cmp, %land.rhs ]
  %frombool = zext i1 %4 to i8
  store i8 %frombool, ptr %sim, align 1
  %5 = load ptr, ptr %a.addr, align 8
  %call5 = call noundef i32 @_ZNK3sat8aig_cuts4node4sizeEv(ptr noundef nonnull align 8 dereferenceable(24) %5)
  store i32 %call5, ptr %i, align 4
  br label %for.cond

for.cond:                                         ; preds = %for.body, %land.end
  %6 = load i8, ptr %sim, align 1
  %tobool = trunc i8 %6 to i1
  br i1 %tobool, label %land.rhs6, label %land.end8

land.rhs6:                                        ; preds = %for.cond
  %7 = load i32, ptr %i, align 4
  %dec = add i32 %7, -1
  store i32 %dec, ptr %i, align 4
  %cmp7 = icmp ugt i32 %7, 0
  br label %land.end8

land.end8:                                        ; preds = %land.rhs6, %for.cond
  %8 = phi i1 [ false, %for.cond ], [ %cmp7, %land.rhs6 ]
  br i1 %8, label %for.body, label %for.end

for.body:                                         ; preds = %land.end8
  %m_literals = getelementptr inbounds %"class.sat::aig_cuts", ptr %this1, i32 0, i32 3
  %9 = load ptr, ptr %a.addr, align 8
  %call9 = call noundef i32 @_ZNK3sat8aig_cuts4node6offsetEv(ptr noundef nonnull align 8 dereferenceable(24) %9)
  %10 = load i32, ptr %i, align 4
  %add = add i32 %call9, %10
  %call10 = call noundef nonnull align 4 dereferenceable(4) ptr @_ZN6vectorIN3sat7literalELb0EjEixEj(ptr noundef nonnull align 8 dereferenceable(8) %m_literals, i32 noundef %add)
  %call11 = call noundef i32 @_ZNK3sat7literal3varEv(ptr noundef nonnull align 4 dereferenceable(4) %call10)
  %m_literals12 = getelementptr inbounds %"class.sat::aig_cuts", ptr %this1, i32 0, i32 3
  %11 = load ptr, ptr %b.addr, align 8
  %call13 = call noundef i32 @_ZNK3sat8aig_cuts4node6offsetEv(ptr noundef nonnull align 8 dereferenceable(24) %11)
  %12 = load i32, ptr %i, align 4
  %add14 = add i32 %call13, %12
  %call15 = call noundef nonnull align 4 dereferenceable(4) ptr @_ZN6vectorIN3sat7literalELb0EjEixEj(ptr noundef nonnull align 8 dereferenceable(8) %m_literals12, i32 noundef %add14)
  %call16 = call noundef i32 @_ZNK3sat7literal3varEv(ptr noundef nonnull align 4 dereferenceable(4) %call15)
  %cmp17 = icmp eq i32 %call11, %call16
  %frombool18 = zext i1 %cmp17 to i8
  store i8 %frombool18, ptr %sim, align 1
  br label %for.cond, !llvm.loop !24

for.end:                                          ; preds = %land.end8
  %13 = load i8, ptr %sim, align 1
  %tobool19 = trunc i8 %13 to i1
  ret i1 %tobool19
}