; Function Attrs: mustprogress nofree norecurse nosync nounwind willreturn memory(read, inaccessiblemem: none) uwtable
define hidden noundef zeroext i1 @_ZN3sat8aig_cuts7similarERKNS0_4nodeES3_(ptr nocapture noundef nonnull readonly align 8 dereferenceable(480) %this, ptr nocapture noundef nonnull readonly align 8 dereferenceable(24) %a, ptr nocapture noundef nonnull readonly align 8 dereferenceable(24) %b) local_unnamed_addr #5 align 2 {
entry:
  %m_op.i = getelementptr inbounds i8, ptr %a, i64 4
  %0 = load i32, ptr %m_op.i, align 4
  %cmp.i = icmp ne i32 %0, 4
  %m_op.i9 = getelementptr inbounds i8, ptr %b, i64 4
  %1 = load i32, ptr %m_op.i9, align 4
  %cmp.i10 = icmp eq i32 %1, 4
  %or.cond17 = select i1 %cmp.i, i1 true, i1 %cmp.i10
  br i1 %or.cond17, label %for.end, label %land.end

land.end:                                         ; preds = %entry
  %m_size.i = getelementptr inbounds i8, ptr %a, i64 16
  %2 = load i32, ptr %m_size.i, align 8
  %m_size.i11 = getelementptr inbounds i8, ptr %b, i64 16
  %3 = load i32, ptr %m_size.i11, align 8
  %cmp = icmp eq i32 %2, %3
  %cmp7.not18 = icmp ne i32 %2, 0
  %or.cond.not19 = and i1 %cmp, %cmp7.not18
  br i1 %or.cond.not19, label %for.body.lr.ph, label %for.end

for.body.lr.ph:                                   ; preds = %land.end
  %m_literals = getelementptr inbounds i8, ptr %this, i64 32
  %m_offset.i = getelementptr inbounds i8, ptr %a, i64 20
  %4 = load i32, ptr %m_offset.i, align 4
  %5 = load ptr, ptr %m_literals, align 8
  %m_offset.i13 = getelementptr inbounds i8, ptr %b, i64 20
  %6 = load i32, ptr %m_offset.i13, align 4
  %7 = zext i32 %2 to i64
  br label %for.body

for.body:                                         ; preds = %for.body.lr.ph, %for.body
  %indvars.iv = phi i64 [ %7, %for.body.lr.ph ], [ %indvars.iv.next, %for.body ]
  %indvars.iv.next = add nsw i64 %indvars.iv, -1
  %indvars = trunc i64 %indvars.iv.next to i32
  %add = add i32 %4, %indvars
  %idxprom.i = zext i32 %add to i64
  %arrayidx.i = getelementptr inbounds %"class.sat::literal", ptr %5, i64 %idxprom.i
  %8 = load i32, ptr %arrayidx.i, align 4
  %add14 = add i32 %6, %indvars
  %idxprom.i14 = zext i32 %add14 to i64
  %arrayidx.i15 = getelementptr inbounds %"class.sat::literal", ptr %5, i64 %idxprom.i14
  %9 = load i32, ptr %arrayidx.i15, align 4
  %cmp17.unshifted = xor i32 %9, %8
  %cmp17 = icmp ult i32 %cmp17.unshifted, 2
  %cmp7.not = icmp ne i32 %indvars, 0
  %or.cond.not = and i1 %cmp17, %cmp7.not
  br i1 %or.cond.not, label %for.body, label %for.end, !llvm.loop !30

for.end:                                          ; preds = %for.body, %entry, %land.end
  %sim.0.lcssa = phi i1 [ %cmp, %land.end ], [ false, %entry ], [ %cmp17, %for.body ]
  ret i1 %sim.0.lcssa
}